target datalayout = "e-m:e-p270:32:32-p271:32:32-p272:64:64-i64:64-i128:128-f80:128-n8:16:32:64-S128"
target triple = "x86_64-pc-linux-gnu"

%struct._zend_cfg = type { i32, i32, ptr, ptr, ptr, i32 }
%struct._zend_basic_block = type { ptr, i32, i32, i32, i32, i32, i32, i32, i32, i32, i32, i32, [2 x i32] }
%struct._zend_worklist = type { ptr, %struct._zend_worklist_stack }
%struct._zend_worklist_stack = type { ptr, i32, i32 }

; Function Attrs: nounwind uwtable
define internal i32 @zend_worklist_stack_pop(ptr noundef %0) #0 {
  %2 = alloca ptr, align 8
  store ptr %0, ptr %2, align 8
  %3 = load ptr, ptr %2, align 8
  %4 = getelementptr inbounds %struct._zend_worklist_stack, ptr %3, i32 0, i32 1
  %5 = load i32, ptr %4, align 8
  %6 = icmp ne i32 %5, 0
  call void @llvm.assume(i1 %6)
  %7 = load ptr, ptr %2, align 8
  %8 = getelementptr inbounds %struct._zend_worklist_stack, ptr %7, i32 0, i32 0
  %9 = load ptr, ptr %8, align 8
  %10 = load ptr, ptr %2, align 8
  %11 = getelementptr inbounds %struct._zend_worklist_stack, ptr %10, i32 0, i32 1
  %12 = load i32, ptr %11, align 8
  %13 = add nsw i32 %12, -1
  store i32 %13, ptr %11, align 8
  %14 = sext i32 %13 to i64
  %15 = getelementptr inbounds i32, ptr %9, i64 %14
  %16 = load i32, ptr %15, align 4
  ret i32 %16
}

; Function Attrs: nounwind uwtable
define internal i32 @zend_worklist_stack_peek(ptr noundef %0) #0 {
  %2 = alloca ptr, align 8
  store ptr %0, ptr %2, align 8
  %3 = load ptr, ptr %2, align 8
  %4 = getelementptr inbounds %struct._zend_worklist_stack, ptr %3, i32 0, i32 1
  %5 = load i32, ptr %4, align 8
  %6 = icmp ne i32 %5, 0
  call void @llvm.assume(i1 %6)
  %7 = load ptr, ptr %2, align 8
  %8 = getelementptr inbounds %struct._zend_worklist_stack, ptr %7, i32 0, i32 0
  %9 = load ptr, ptr %8, align 8
  %10 = load ptr, ptr %2, align 8
  %11 = getelementptr inbounds %struct._zend_worklist_stack, ptr %10, i32 0, i32 1
  %12 = load i32, ptr %11, align 8
  %13 = sub nsw i32 %12, 1
  %14 = sext i32 %13 to i64
  %15 = getelementptr inbounds i32, ptr %9, i64 %14
  %16 = load i32, ptr %15, align 4
  ret i32 %16
}

; Function Attrs: nounwind uwtable
define internal void @zend_worklist_stack_push(ptr noundef %0, i32 noundef %1) #0 {
  %3 = alloca ptr, align 8
  %4 = alloca i32, align 4
  store ptr %0, ptr %3, align 8
  store i32 %1, ptr %4, align 4
  %5 = load ptr, ptr %3, align 8
  %6 = getelementptr inbounds %struct._zend_worklist_stack, ptr %5, i32 0, i32 1
  %7 = load i32, ptr %6, align 8
  %8 = load ptr, ptr %3, align 8
  %9 = getelementptr inbounds %struct._zend_worklist_stack, ptr %8, i32 0, i32 2
  %10 = load i32, ptr %9, align 4
  %11 = icmp slt i32 %7, %10
  call void @llvm.assume(i1 %11)
  %12 = load i32, ptr %4, align 4
  %13 = load ptr, ptr %3, align 8
  %14 = getelementptr inbounds %struct._zend_worklist_stack, ptr %13, i32 0, i32 0
  %15 = load ptr, ptr %14, align 8
  %16 = load ptr, ptr %3, align 8
  %17 = getelementptr inbounds %struct._zend_worklist_stack, ptr %16, i32 0, i32 1
  %18 = load i32, ptr %17, align 8
  %19 = add nsw i32 %18, 1
  store i32 %19, ptr %17, align 8
  %20 = sext i32 %18 to i64
  %21 = getelementptr inbounds i32, ptr %15, i64 %20
  store i32 %12, ptr %21, align 4
  ret void
}

; Function Attrs: nounwind uwtable
define internal void @zend_bitset_incl(ptr noundef %0, i32 noundef %1) #0 {
  %3 = alloca ptr, align 8
  %4 = alloca i32, align 4
  store ptr %0, ptr %3, align 8
  store i32 %1, ptr %4, align 4
  %5 = load i32, ptr %4, align 4
  %6 = zext i32 %5 to i64
  %7 = and i64 %6, 63
  %8 = shl i64 1, %7
  %9 = load ptr, ptr %3, align 8
  %10 = load i32, ptr %4, align 4
  %11 = lshr i32 %10, 6
  %12 = zext i32 %11 to i64
  %13 = getelementptr inbounds i64, ptr %9, i64 %12
  %14 = load i64, ptr %13, align 8
  %15 = or i64 %14, %8
  store i64 %15, ptr %13, align 8
  ret void
}

; Function Attrs: nounwind uwtable
define internal zeroext i1 @zend_bitset_in(ptr noundef %0, i32 noundef %1) #0 {
  %3 = alloca ptr, align 8
  %4 = alloca i32, align 4
  store ptr %0, ptr %3, align 8
  store i32 %1, ptr %4, align 4
  %5 = load ptr, ptr %3, align 8
  %6 = load i32, ptr %4, align 4
  %7 = zext i32 %6 to i64
  %8 = udiv i64 %7, 64
  %9 = getelementptr inbounds i64, ptr %5, i64 %8
  %10 = load i64, ptr %9, align 8
  %11 = load i32, ptr %4, align 4
  %12 = zext i32 %11 to i64
  %13 = and i64 %12, 63
  %14 = lshr i64 %10, %13
  %15 = and i64 %14, 1
  %16 = icmp ne i64 %15, 0
  ret i1 %16
}

; Function Attrs: nounwind uwtable
define internal i32 @zend_worklist_pop(ptr noundef %0) #0 {
  %2 = alloca ptr, align 8
  store ptr %0, ptr %2, align 8
  %3 = load ptr, ptr %2, align 8
  %4 = getelementptr inbounds %struct._zend_worklist, ptr %3, i32 0, i32 1
  %5 = call i32 @zend_worklist_stack_pop(ptr noundef %4)
  ret i32 %5
}

; Function Attrs: nounwind uwtable
define internal i32 @zend_worklist_peek(ptr noundef %0) #0 {
  %2 = alloca ptr, align 8
  store ptr %0, ptr %2, align 8
  %3 = load ptr, ptr %2, align 8
  %4 = getelementptr inbounds %struct._zend_worklist, ptr %3, i32 0, i32 1
  %5 = call i32 @zend_worklist_stack_peek(ptr noundef %4)
  ret i32 %5
}

; Function Attrs: nounwind uwtable
define internal i32 @zend_worklist_len(ptr noundef %0) #0 {
  %2 = alloca ptr, align 8
  store ptr %0, ptr %2, align 8
  %3 = load ptr, ptr %2, align 8
  %4 = getelementptr inbounds %struct._zend_worklist, ptr %3, i32 0, i32 1
  %5 = getelementptr inbounds %struct._zend_worklist_stack, ptr %4, i32 0, i32 1
  %6 = load i32, ptr %5, align 8
  ret i32 %6
}

; Function Attrs: nounwind uwtable
define internal zeroext i1 @zend_worklist_push(ptr noundef %0, i32 noundef %1) #0 {
  %3 = alloca i1, align 1
  %4 = alloca ptr, align 8
  %5 = alloca i32, align 4
  store ptr %0, ptr %4, align 8
  store i32 %1, ptr %5, align 4
  %6 = load i32, ptr %5, align 4
  %7 = icmp sge i32 %6, 0
  br i1 %7, label %8, label %15

8:                                                ; preds = %2
  %9 = load i32, ptr %5, align 4
  %10 = load ptr, ptr %4, align 8
  %11 = getelementptr inbounds %struct._zend_worklist, ptr %10, i32 0, i32 1
  %12 = getelementptr inbounds %struct._zend_worklist_stack, ptr %11, i32 0, i32 2
  %13 = load i32, ptr %12, align 4
  %14 = icmp slt i32 %9, %13
  br label %15

15:                                               ; preds = %8, %2
  %16 = phi i1 [ false, %2 ], [ %14, %8 ]
  call void @llvm.assume(i1 %16)
  %17 = load ptr, ptr %4, align 8
  %18 = getelementptr inbounds %struct._zend_worklist, ptr %17, i32 0, i32 0
  %19 = load ptr, ptr %18, align 8
  %20 = load i32, ptr %5, align 4
  %21 = call zeroext i1 @zend_bitset_in(ptr noundef %19, i32 noundef %20)
  br i1 %21, label %22, label %23

22:                                               ; preds = %15
  store i1 false, ptr %3, align 1
  br label %31

23:                                               ; preds = %15
  %24 = load ptr, ptr %4, align 8
  %25 = getelementptr inbounds %struct._zend_worklist, ptr %24, i32 0, i32 0
  %26 = load ptr, ptr %25, align 8
  %27 = load i32, ptr %5, align 4
  call void @zend_bitset_incl(ptr noundef %26, i32 noundef %27)
  %28 = load ptr, ptr %4, align 8
  %29 = getelementptr inbounds %struct._zend_worklist, ptr %28, i32 0, i32 1
  %30 = load i32, ptr %5, align 4
  call void @zend_worklist_stack_push(ptr noundef %29, i32 noundef %30)
  store i1 true, ptr %3, align 1
  br label %31

31:                                               ; preds = %23, %22
  %32 = load i1, ptr %3, align 1
  ret i1 %32
}

; Function Attrs: nounwind uwtable
define internal i32 @zend_bitset_len(i32 noundef %0) #0 {
  %2 = alloca i32, align 4
  store i32 %0, ptr %2, align 4
  %3 = load i32, ptr %2, align 4
  %4 = zext i32 %3 to i64
  %5 = add i64 %4, 63
  %6 = udiv i64 %5, 64
  %7 = trunc i64 %6 to i32
  ret i32 %7
}

; Function Attrs: nounwind uwtable
define internal i32 @zend_jit_compute_post_order(ptr noundef %0, i32 noundef %1, ptr noundef %2) #0 {
  %4 = alloca ptr, align 8
  %5 = alloca i32, align 4
  %6 = alloca ptr, align 8
  %7 = alloca i32, align 4
  %8 = alloca i32, align 4
  %9 = alloca i32, align 4
  %10 = alloca ptr, align 8
  %11 = alloca ptr, align 8
  %12 = alloca %struct._zend_worklist, align 8
  %13 = alloca i8, align 1
  store ptr %0, ptr %4, align 8
  store i32 %1, ptr %5, align 4
  store ptr %2, ptr %6, align 8
  store i32 0, ptr %7, align 4
  br label %14

14:                                               ; preds = %3
  %15 = load ptr, ptr %4, align 8
  %16 = getelementptr inbounds %struct._zend_cfg, ptr %15, i32 0, i32 0
  %17 = load i32, ptr %16, align 8
  %18 = sext i32 %17 to i64
  %19 = mul i64 4, %18
  %20 = add i64 %19, 8
  %21 = sub i64 %20, 1
  %22 = and i64 %21, -8
  %23 = load ptr, ptr %4, align 8
  %24 = getelementptr inbounds %struct._zend_cfg, ptr %23, i32 0, i32 0
  %25 = load i32, ptr %24, align 8
  %26 = call i32 @zend_bitset_len(i32 noundef %25)
  %27 = zext i32 %26 to i64
  %28 = mul i64 8, %27
  %29 = add i64 %22, %28
  %30 = icmp ugt i64 %29, 32768
  %31 = xor i1 %30, true
  %32 = xor i1 %31, true
  %33 = zext i1 %32 to i32
  %34 = sext i32 %33 to i64
  %35 = icmp ne i64 %34, 0
  %36 = zext i1 %35 to i8
  store i8 %36, ptr %13, align 1
  br i1 %35, label %37, label %54

37:                                               ; preds = %14
  %38 = load ptr, ptr %4, align 8
  %39 = getelementptr inbounds %struct._zend_cfg, ptr %38, i32 0, i32 0
  %40 = load i32, ptr %39, align 8
  %41 = sext i32 %40 to i64
  %42 = mul i64 4, %41
  %43 = add i64 %42, 8
  %44 = sub i64 %43, 1
  %45 = and i64 %44, -8
  %46 = load ptr, ptr %4, align 8
  %47 = getelementptr inbounds %struct._zend_cfg, ptr %46, i32 0, i32 0
  %48 = load i32, ptr %47, align 8
  %49 = call i32 @zend_bitset_len(i32 noundef %48)
  %50 = zext i32 %49 to i64
  %51 = mul i64 8, %50
  %52 = add i64 %45, %51
  %53 = call noalias ptr @_emalloc(i64 noundef %52) #25
  br label %71

54:                                               ; preds = %14
  %55 = load ptr, ptr %4, align 8
  %56 = getelementptr inbounds %struct._zend_cfg, ptr %55, i32 0, i32 0
  %57 = load i32, ptr %56, align 8
  %58 = sext i32 %57 to i64
  %59 = mul i64 4, %58
  %60 = add i64 %59, 8
  %61 = sub i64 %60, 1
  %62 = and i64 %61, -8
  %63 = load ptr, ptr %4, align 8
  %64 = getelementptr inbounds %struct._zend_cfg, ptr %63, i32 0, i32 0
  %65 = load i32, ptr %64, align 8
  %66 = call i32 @zend_bitset_len(i32 noundef %65)
  %67 = zext i32 %66 to i64
  %68 = mul i64 8, %67
  %69 = add i64 %62, %68
  %70 = alloca i8, i64 %69, align 16
  br label %71

71:                                               ; preds = %54, %37
  %72 = phi ptr [ %53, %37 ], [ %70, %54 ]
  %73 = getelementptr inbounds %struct._zend_worklist, ptr %12, i32 0, i32 1
  %74 = getelementptr inbounds %struct._zend_worklist_stack, ptr %73, i32 0, i32 0
  store ptr %72, ptr %74, align 8
  %75 = getelementptr inbounds %struct._zend_worklist, ptr %12, i32 0, i32 1
  %76 = getelementptr inbounds %struct._zend_worklist_stack, ptr %75, i32 0, i32 1
  store i32 0, ptr %76, align 8
  %77 = load ptr, ptr %4, align 8
  %78 = getelementptr inbounds %struct._zend_cfg, ptr %77, i32 0, i32 0
  %79 = load i32, ptr %78, align 8
  %80 = getelementptr inbounds %struct._zend_worklist, ptr %12, i32 0, i32 1
  %81 = getelementptr inbounds %struct._zend_worklist_stack, ptr %80, i32 0, i32 2
  store i32 %79, ptr %81, align 4
  %82 = getelementptr inbounds %struct._zend_worklist, ptr %12, i32 0, i32 1
  %83 = getelementptr inbounds %struct._zend_worklist_stack, ptr %82, i32 0, i32 0
  %84 = load ptr, ptr %83, align 8
  %85 = load ptr, ptr %4, align 8
  %86 = getelementptr inbounds %struct._zend_cfg, ptr %85, i32 0, i32 0
  %87 = load i32, ptr %86, align 8
  %88 = sext i32 %87 to i64
  %89 = mul i64 4, %88
  %90 = add i64 %89, 8
  %91 = sub i64 %90, 1
  %92 = and i64 %91, -8
  %93 = getelementptr inbounds i8, ptr %84, i64 %92
  %94 = getelementptr inbounds %struct._zend_worklist, ptr %12, i32 0, i32 0
  store ptr %93, ptr %94, align 8
  %95 = getelementptr inbounds %struct._zend_worklist, ptr %12, i32 0, i32 0
  %96 = load ptr, ptr %95, align 8
  %97 = load ptr, ptr %4, align 8
  %98 = getelementptr inbounds %struct._zend_cfg, ptr %97, i32 0, i32 0
  %99 = load i32, ptr %98, align 8
  %100 = call i32 @zend_bitset_len(i32 noundef %99)
  %101 = zext i32 %100 to i64
  %102 = mul i64 8, %101
  call void @llvm.memset.p0.i64(ptr align 8 %96, i8 0, i64 %102, i1 false)
  br label %103

103:                                              ; preds = %71
  %104 = load i32, ptr %5, align 4
  %105 = call zeroext i1 @zend_worklist_push(ptr noundef %12, i32 noundef %104)
  br label %106

106:                                              ; preds = %155, %103
  %107 = call i32 @zend_worklist_len(ptr noundef %12)
  %108 = icmp ne i32 %107, 0
  br i1 %108, label %109, label %163

109:                                              ; preds = %106
  br label %110

110:                                              ; preds = %144, %109
  %111 = call i32 @zend_worklist_peek(ptr noundef %12)
  store i32 %111, ptr %8, align 4
  %112 = load ptr, ptr %4, align 8
  %113 = getelementptr inbounds %struct._zend_cfg, ptr %112, i32 0, i32 2
  %114 = load ptr, ptr %113, align 8
  %115 = load i32, ptr %8, align 4
  %116 = sext i32 %115 to i64
  %117 = getelementptr inbounds %struct._zend_basic_block, ptr %114, i64 %116
  store ptr %117, ptr %11, align 8
  %118 = load ptr, ptr %11, align 8
  %119 = getelementptr inbounds %struct._zend_basic_block, ptr %118, i32 0, i32 4
  %120 = load i32, ptr %119, align 4
  store i32 %120, ptr %9, align 4
  %121 = load i32, ptr %9, align 4
  %122 = icmp sgt i32 %121, 0
  br i1 %122, label %123, label %155

123:                                              ; preds = %110
  %124 = load ptr, ptr %11, align 8
  %125 = getelementptr inbounds %struct._zend_basic_block, ptr %124, i32 0, i32 0
  %126 = load ptr, ptr %125, align 8
  store ptr %126, ptr %10, align 8
  br label %127

127:                                              ; preds = %151, %123
  %128 = load ptr, ptr %4, align 8
  %129 = getelementptr inbounds %struct._zend_cfg, ptr %128, i32 0, i32 2
  %130 = load ptr, ptr %129, align 8
  %131 = load ptr, ptr %10, align 8
  %132 = load i32, ptr %131, align 4
  %133 = sext i32 %132 to i64
  %134 = getelementptr inbounds %struct._zend_basic_block, ptr %130, i64 %133
  %135 = getelementptr inbounds %struct._zend_basic_block, ptr %134, i32 0, i32 1
  %136 = load i32, ptr %135, align 8
  %137 = and i32 %136, 448
  %138 = icmp ne i32 %137, 0
  br i1 %138, label %139, label %140

139:                                              ; preds = %127
  br label %146

140:                                              ; preds = %127
  %141 = load ptr, ptr %10, align 8
  %142 = load i32, ptr %141, align 4
  %143 = call zeroext i1 @zend_worklist_push(ptr noundef %12, i32 noundef %142)
  br i1 %143, label %144, label %145

144:                                              ; preds = %140
  br label %110

145:                                              ; preds = %140
  br label %146

146:                                              ; preds = %145, %139
  %147 = load ptr, ptr %10, align 8
  %148 = getelementptr inbounds i32, ptr %147, i32 1
  store ptr %148, ptr %10, align 8
  %149 = load i32, ptr %9, align 4
  %150 = add nsw i32 %149, -1
  store i32 %150, ptr %9, align 4
  br label %151

151:                                              ; preds = %146
  %152 = load i32, ptr %9, align 4
  %153 = icmp sgt i32 %152, 0
  br i1 %153, label %127, label %154

154:                                              ; preds = %151
  br label %155

155:                                              ; preds = %154, %110
  %156 = call i32 @zend_worklist_pop(ptr noundef %12)
  %157 = load i32, ptr %8, align 4
  %158 = load ptr, ptr %6, align 8
  %159 = load i32, ptr %7, align 4
  %160 = add nsw i32 %159, 1
  store i32 %160, ptr %7, align 4
  %161 = sext i32 %159 to i64
  %162 = getelementptr inbounds i32, ptr %158, i64 %161
  store i32 %157, ptr %162, align 4
  br label %106

163:                                              ; preds = %106
  br label %164

164:                                              ; preds = %163
  %165 = load i8, ptr %13, align 1
  %166 = trunc i8 %165 to i1
  %167 = xor i1 %166, true
  %168 = xor i1 %167, true
  %169 = zext i1 %168 to i32
  %170 = sext i32 %169 to i64
  %171 = icmp ne i64 %170, 0
  br i1 %171, label %172, label %176

172:                                              ; preds = %164
  %173 = getelementptr inbounds %struct._zend_worklist, ptr %12, i32 0, i32 1
  %174 = getelementptr inbounds %struct._zend_worklist_stack, ptr %173, i32 0, i32 0
  %175 = load ptr, ptr %174, align 8
  call void @_efree(ptr noundef %175)
  br label %176

176:                                              ; preds = %172, %164
  br label %177

177:                                              ; preds = %176
  %178 = load i32, ptr %7, align 4
  ret i32 %178
}