; Function Attrs: nounwind uwtable
define internal fastcc i32 @zend_jit_compute_post_order(ptr nocapture noundef readonly %0, ptr nocapture noundef writeonly %1) unnamed_addr #0 {
  %3 = load i32, ptr %0, align 8
  %4 = sext i32 %3 to i64
  %5 = shl nsw i64 %4, 2
  %6 = add nsw i64 %5, 7
  %7 = and i64 %6, -8
  %8 = zext i32 %3 to i64
  %9 = add nuw nsw i64 %8, 63
  %sh.diff = lshr i64 %9, 3
  %10 = and i64 %sh.diff, 1073741816
  %11 = add nsw i64 %7, %10
  %12 = icmp ugt i64 %11, 32768
  br i1 %12, label %13, label %15

13:                                               ; preds = %2
  %14 = tail call noalias ptr @_emalloc(i64 noundef %11) #35
  %.pre = load i32, ptr %0, align 8
  %.pre71 = zext nneg i32 %.pre to i64
  br label %17

15:                                               ; preds = %2
  %16 = alloca i8, i64 %11, align 16
  br label %17

17:                                               ; preds = %15, %13
  %.pre-phi = phi i64 [ %8, %15 ], [ %.pre71, %13 ]
  %18 = phi i32 [ %3, %15 ], [ %.pre, %13 ]
  %19 = phi ptr [ %16, %15 ], [ %14, %13 ]
  %20 = shl nuw nsw i64 %.pre-phi, 2
  %21 = add nuw nsw i64 %20, 7
  %22 = and i64 %21, 17179869176
  %23 = getelementptr inbounds i8, ptr %19, i64 %22
  %narrow = add nuw i32 %18, 63
  %24 = lshr i32 %narrow, 3
  %25 = and i32 %24, 536870904
  %26 = zext nneg i32 %25 to i64
  call void @llvm.memset.p0.i64(ptr align 8 %23, i8 0, i64 %26, i1 false)
  %27 = icmp sgt i32 %18, 0
  tail call void @llvm.assume(i1 %27)
  %28 = load i64, ptr %23, align 8
  %29 = and i64 %28, 1
  %.not.i.not = icmp eq i64 %29, 0
  br i1 %.not.i.not, label %.preheader.lr.ph, label %._crit_edge

.preheader.lr.ph:                                 ; preds = %17
  %30 = or disjoint i64 %28, 1
  store i64 %30, ptr %23, align 8
  store i32 0, ptr %19, align 4
  %invariant.gep = getelementptr i8, ptr %19, i64 -4
  %31 = getelementptr inbounds i8, ptr %0, i64 8
  %32 = zext nneg i32 %18 to i64
  br label %.preheader

.preheader:                                       ; preds = %.preheader.lr.ph, %.loopexit
  %indvars.iv68 = phi i64 [ 0, %.preheader.lr.ph ], [ %indvars.iv.next69, %.loopexit ]
  %.sroa.9.156 = phi i32 [ 1, %.preheader.lr.ph ], [ %82, %.loopexit ]
  %33 = load ptr, ptr %31, align 8
  %34 = sext i32 %.sroa.9.156 to i64
  %gep52 = getelementptr i32, ptr %invariant.gep, i64 %34
  %35 = load i32, ptr %gep52, align 4
  %36 = sext i32 %35 to i64
  %37 = getelementptr inbounds %struct._zend_basic_block, ptr %33, i64 %36
  %38 = getelementptr inbounds i8, ptr %37, i64 20
  %39 = load i32, ptr %38, align 4
  %40 = icmp sgt i32 %39, 0
  br i1 %40, label %.lr.ph, label %.loopexit

.lr.ph:                                           ; preds = %.preheader, %zend_worklist_push.exit33
  %indvars.iv = phi i64 [ %indvars.iv.next, %zend_worklist_push.exit33 ], [ %34, %.preheader ]
  %41 = phi i32 [ %75, %zend_worklist_push.exit33 ], [ %39, %.preheader ]
  %42 = phi ptr [ %73, %zend_worklist_push.exit33 ], [ %37, %.preheader ]
  %43 = phi i32 [ %46, %zend_worklist_push.exit33 ], [ %35, %.preheader ]
  %44 = load ptr, ptr %42, align 8
  br label %45

45:                                               ; preds = %zend_worklist_push.exit33.thread, %.lr.ph
  %.026 = phi ptr [ %44, %.lr.ph ], [ %77, %zend_worklist_push.exit33.thread ]
  %.025 = phi i32 [ %41, %.lr.ph ], [ %78, %zend_worklist_push.exit33.thread ]
  %46 = load i32, ptr %.026, align 4
  %47 = sext i32 %46 to i64
  %48 = getelementptr inbounds %struct._zend_basic_block, ptr %33, i64 %47, i32 1
  %49 = load i32, ptr %48, align 8
  %50 = and i32 %49, 448
  %.not29 = icmp eq i32 %50, 0
  br i1 %.not29, label %51, label %zend_worklist_push.exit33.thread

51:                                               ; preds = %45
  %52 = icmp sgt i32 %46, -1
  %53 = icmp ugt i32 %18, %46
  tail call void @llvm.assume(i1 %52)
  tail call void @llvm.assume(i1 %53)
  %54 = zext nneg i32 %46 to i64
  %55 = lshr i64 %54, 6
  %56 = getelementptr inbounds i64, ptr %23, i64 %55
  %57 = load i64, ptr %56, align 8
  %58 = and i64 %54, 63
  %59 = shl nuw i64 1, %58
  %60 = and i64 %57, %59
  %.not.i32 = icmp eq i64 %60, 0
  br i1 %.not.i32, label %zend_worklist_push.exit33, label %zend_worklist_push.exit33.thread

zend_worklist_push.exit33:                        ; preds = %51
  %61 = and i32 %46, 63
  %62 = zext nneg i32 %61 to i64
  %63 = shl nuw i64 1, %62
  %64 = lshr i32 %46, 6
  %65 = zext nneg i32 %64 to i64
  %66 = getelementptr inbounds i64, ptr %23, i64 %65
  %67 = load i64, ptr %66, align 8
  %68 = or i64 %67, %63
  store i64 %68, ptr %66, align 8
  %69 = icmp slt i64 %indvars.iv, %32
  tail call void @llvm.assume(i1 %69)
  %indvars.iv.next = add nsw i64 %indvars.iv, 1
  %70 = getelementptr inbounds i32, ptr %19, i64 %indvars.iv
  store i32 %46, ptr %70, align 4
  %71 = trunc i64 %indvars.iv.next to i32
  %72 = icmp ne i32 %71, 0
  tail call void @llvm.assume(i1 %72)
  %73 = getelementptr inbounds %struct._zend_basic_block, ptr %33, i64 %47
  %74 = getelementptr inbounds i8, ptr %73, i64 20
  %75 = load i32, ptr %74, align 4
  %76 = icmp sgt i32 %75, 0
  br i1 %76, label %.lr.ph, label %.loopexit

zend_worklist_push.exit33.thread:                 ; preds = %51, %45
  %77 = getelementptr inbounds i8, ptr %.026, i64 4
  %78 = add nsw i32 %.025, -1
  %79 = icmp sgt i32 %.025, 1
  br i1 %79, label %45, label %.loopexit.loopexit

.loopexit.loopexit:                               ; preds = %zend_worklist_push.exit33.thread
  %80 = trunc i64 %indvars.iv to i32
  br label %.loopexit

.loopexit:                                        ; preds = %zend_worklist_push.exit33, %.loopexit.loopexit, %.preheader
  %.sroa.9.251 = phi i32 [ %.sroa.9.156, %.preheader ], [ %80, %.loopexit.loopexit ], [ %71, %zend_worklist_push.exit33 ]
  %81 = phi i32 [ %35, %.preheader ], [ %43, %.loopexit.loopexit ], [ %46, %zend_worklist_push.exit33 ]
  %82 = add nsw i32 %.sroa.9.251, -1
  %indvars.iv.next69 = add nuw nsw i64 %indvars.iv68, 1
  %83 = getelementptr inbounds i32, ptr %1, i64 %indvars.iv68
  store i32 %81, ptr %83, align 4
  %.not = icmp eq i32 %82, 0
  br i1 %.not, label %._crit_edge.loopexit, label %.preheader

._crit_edge.loopexit:                             ; preds = %.loopexit
  %84 = trunc i64 %indvars.iv.next69 to i32
  br label %._crit_edge

._crit_edge:                                      ; preds = %17, %._crit_edge.loopexit
  %.0.lcssa = phi i32 [ %84, %._crit_edge.loopexit ], [ 0, %17 ]
  br i1 %12, label %85, label %86

85:                                               ; preds = %._crit_edge
  call void @_efree(ptr noundef %19) #32
  br label %86

86:                                               ; preds = %._crit_edge, %85
  ret i32 %.0.lcssa
}